target datalayout = "e-m:e-p270:32:32-p271:32:32-p272:64:64-i64:64-i128:128-f80:128-n8:16:32:64-S128"
target triple = "x86_64-pc-linux-gnu"

%struct._object = type { %union.anon, ptr }
%union.anon = type { i64 }
%struct.PyVarObject = type { %struct._object, i64 }
%struct.arraydescr = type { i8, i32, ptr, ptr, ptr, ptr, i32, i32 }
%struct.arrayobject = type { %struct.PyVarObject, ptr, i64, ptr, ptr, i64 }

@_Py_NoneStruct = external global %struct._object, align 8
@.str.55 = private unnamed_addr constant [33 x i8] c"../cpython/Modules/arraymodule.c\00", align 1

; Function Attrs: nounwind uwtable
define internal i32 @ins1(ptr noundef %0, i64 noundef %1, ptr noundef %2) #0 {
  %4 = alloca i32, align 4
  %5 = alloca ptr, align 8
  %6 = alloca i64, align 8
  %7 = alloca ptr, align 8
  %8 = alloca ptr, align 8
  %9 = alloca i64, align 8
  %10 = alloca i32, align 4
  store ptr %0, ptr %5, align 8, !tbaa !68
  store i64 %1, ptr %6, align 8, !tbaa !21
  store ptr %2, ptr %7, align 8, !tbaa !3
  call void @llvm.lifetime.start.p0(i64 8, ptr %8) #8
  call void @llvm.lifetime.start.p0(i64 8, ptr %9) #8
  %11 = load ptr, ptr %5, align 8, !tbaa !68
  %12 = call i64 @Py_SIZE(ptr noundef %11)
  store i64 %12, ptr %9, align 8, !tbaa !21
  %13 = load ptr, ptr %7, align 8, !tbaa !3
  %14 = icmp eq ptr %13, null
  br i1 %14, label %15, label %16

15:                                               ; preds = %3
  call void @_PyErr_BadInternalCall(ptr noundef @.str.55, i32 noundef 688)
  store i32 -1, ptr %4, align 4
  store i32 1, ptr %10, align 4
  br label %100

16:                                               ; preds = %3
  %17 = load ptr, ptr %5, align 8, !tbaa !68
  %18 = getelementptr inbounds nuw %struct.arrayobject, ptr %17, i32 0, i32 3
  %19 = load ptr, ptr %18, align 8, !tbaa !99
  %20 = getelementptr inbounds nuw %struct.arraydescr, ptr %19, i32 0, i32 3
  %21 = load ptr, ptr %20, align 8, !tbaa !109
  %22 = load ptr, ptr %5, align 8, !tbaa !68
  %23 = load ptr, ptr %7, align 8, !tbaa !3
  %24 = call i32 %21(ptr noundef %22, i64 noundef -1, ptr noundef %23)
  %25 = icmp slt i32 %24, 0
  br i1 %25, label %26, label %27

26:                                               ; preds = %16
  store i32 -1, ptr %4, align 4
  store i32 1, ptr %10, align 4
  br label %100

27:                                               ; preds = %16
  %28 = load ptr, ptr %5, align 8, !tbaa !68
  %29 = load i64, ptr %9, align 8, !tbaa !21
  %30 = add i64 %29, 1
  %31 = call i32 @array_resize(ptr noundef %28, i64 noundef %30)
  %32 = icmp eq i32 %31, -1
  br i1 %32, label %33, label %34

33:                                               ; preds = %27
  store i32 -1, ptr %4, align 4
  store i32 1, ptr %10, align 4
  br label %100

34:                                               ; preds = %27
  %35 = load ptr, ptr %5, align 8, !tbaa !68
  %36 = getelementptr inbounds nuw %struct.arrayobject, ptr %35, i32 0, i32 1
  %37 = load ptr, ptr %36, align 8, !tbaa !70
  store ptr %37, ptr %8, align 8, !tbaa !47
  %38 = load i64, ptr %6, align 8, !tbaa !21
  %39 = icmp slt i64 %38, 0
  br i1 %39, label %40, label %48

40:                                               ; preds = %34
  %41 = load i64, ptr %9, align 8, !tbaa !21
  %42 = load i64, ptr %6, align 8, !tbaa !21
  %43 = add i64 %42, %41
  store i64 %43, ptr %6, align 8, !tbaa !21
  %44 = load i64, ptr %6, align 8, !tbaa !21
  %45 = icmp slt i64 %44, 0
  br i1 %45, label %46, label %47

46:                                               ; preds = %40
  store i64 0, ptr %6, align 8, !tbaa !21
  br label %47

47:                                               ; preds = %46, %40
  br label %48

48:                                               ; preds = %47, %34
  %49 = load i64, ptr %6, align 8, !tbaa !21
  %50 = load i64, ptr %9, align 8, !tbaa !21
  %51 = icmp sgt i64 %49, %50
  br i1 %51, label %52, label %54

52:                                               ; preds = %48
  %53 = load i64, ptr %9, align 8, !tbaa !21
  store i64 %53, ptr %6, align 8, !tbaa !21
  br label %54

54:                                               ; preds = %52, %48
  %55 = load i64, ptr %6, align 8, !tbaa !21
  %56 = load i64, ptr %9, align 8, !tbaa !21
  %57 = icmp ne i64 %55, %56
  br i1 %57, label %58, label %90

58:                                               ; preds = %54
  %59 = load ptr, ptr %8, align 8, !tbaa !47
  %60 = load i64, ptr %6, align 8, !tbaa !21
  %61 = add i64 %60, 1
  %62 = load ptr, ptr %5, align 8, !tbaa !68
  %63 = getelementptr inbounds nuw %struct.arrayobject, ptr %62, i32 0, i32 3
  %64 = load ptr, ptr %63, align 8, !tbaa !99
  %65 = getelementptr inbounds nuw %struct.arraydescr, ptr %64, i32 0, i32 1
  %66 = load i32, ptr %65, align 4, !tbaa !52
  %67 = sext i32 %66 to i64
  %68 = mul i64 %61, %67
  %69 = getelementptr i8, ptr %59, i64 %68
  %70 = load ptr, ptr %8, align 8, !tbaa !47
  %71 = load i64, ptr %6, align 8, !tbaa !21
  %72 = load ptr, ptr %5, align 8, !tbaa !68
  %73 = getelementptr inbounds nuw %struct.arrayobject, ptr %72, i32 0, i32 3
  %74 = load ptr, ptr %73, align 8, !tbaa !99
  %75 = getelementptr inbounds nuw %struct.arraydescr, ptr %74, i32 0, i32 1
  %76 = load i32, ptr %75, align 4, !tbaa !52
  %77 = sext i32 %76 to i64
  %78 = mul i64 %71, %77
  %79 = getelementptr i8, ptr %70, i64 %78
  %80 = load i64, ptr %9, align 8, !tbaa !21
  %81 = load i64, ptr %6, align 8, !tbaa !21
  %82 = sub i64 %80, %81
  %83 = load ptr, ptr %5, align 8, !tbaa !68
  %84 = getelementptr inbounds nuw %struct.arrayobject, ptr %83, i32 0, i32 3
  %85 = load ptr, ptr %84, align 8, !tbaa !99
  %86 = getelementptr inbounds nuw %struct.arraydescr, ptr %85, i32 0, i32 1
  %87 = load i32, ptr %86, align 4, !tbaa !52
  %88 = sext i32 %87 to i64
  %89 = mul i64 %82, %88
  call void @llvm.memmove.p0.p0.i64(ptr align 1 %69, ptr align 1 %79, i64 %89, i1 false)
  br label %90

90:                                               ; preds = %58, %54
  %91 = load ptr, ptr %5, align 8, !tbaa !68
  %92 = getelementptr inbounds nuw %struct.arrayobject, ptr %91, i32 0, i32 3
  %93 = load ptr, ptr %92, align 8, !tbaa !99
  %94 = getelementptr inbounds nuw %struct.arraydescr, ptr %93, i32 0, i32 3
  %95 = load ptr, ptr %94, align 8, !tbaa !109
  %96 = load ptr, ptr %5, align 8, !tbaa !68
  %97 = load i64, ptr %6, align 8, !tbaa !21
  %98 = load ptr, ptr %7, align 8, !tbaa !3
  %99 = call i32 %95(ptr noundef %96, i64 noundef %97, ptr noundef %98)
  store i32 %99, ptr %4, align 4
  store i32 1, ptr %10, align 4
  br label %100

100:                                              ; preds = %90, %33, %26, %15
  call void @llvm.lifetime.end.p0(i64 8, ptr %9) #8
  call void @llvm.lifetime.end.p0(i64 8, ptr %8) #8
  %101 = load i32, ptr %4, align 4
  ret i32 %101
}

; Function Attrs: nounwind uwtable
define internal ptr @ins(ptr noundef %0, i64 noundef %1, ptr noundef %2) #0 {
  %4 = alloca ptr, align 8
  %5 = alloca ptr, align 8
  %6 = alloca i64, align 8
  %7 = alloca ptr, align 8
  store ptr %0, ptr %5, align 8, !tbaa !68
  store i64 %1, ptr %6, align 8, !tbaa !21
  store ptr %2, ptr %7, align 8, !tbaa !3
  %8 = load ptr, ptr %5, align 8, !tbaa !68
  %9 = load i64, ptr %6, align 8, !tbaa !21
  %10 = load ptr, ptr %7, align 8, !tbaa !3
  %11 = call i32 @ins1(ptr noundef %8, i64 noundef %9, ptr noundef %10)
  %12 = icmp ne i32 %11, 0
  br i1 %12, label %13, label %14

13:                                               ; preds = %3
  store ptr null, ptr %4, align 8
  br label %15

14:                                               ; preds = %3
  store ptr @_Py_NoneStruct, ptr %4, align 8
  br label %15

15:                                               ; preds = %14, %13
  %16 = load ptr, ptr %4, align 8
  ret ptr %16
}

; Function Attrs: inlinehint nounwind uwtable
define internal i64 @Py_SIZE(ptr noundef %0) #3 {
  %2 = alloca ptr, align 8
  store ptr %0, ptr %2, align 8, !tbaa !3
  %3 = load ptr, ptr %2, align 8, !tbaa !3
  %4 = getelementptr inbounds nuw %struct.PyVarObject, ptr %3, i32 0, i32 1
  %5 = load i64, ptr %4, align 8, !tbaa !62
  ret i64 %5
}

; Function Attrs: nounwind uwtable
define internal ptr @array_array_append(ptr noundef %0, ptr noundef %1) #0 {
  %3 = alloca ptr, align 8
  %4 = alloca ptr, align 8
  store ptr %0, ptr %3, align 8, !tbaa !68
  store ptr %1, ptr %4, align 8, !tbaa !3
  %5 = load ptr, ptr %3, align 8, !tbaa !68
  %6 = load ptr, ptr %3, align 8, !tbaa !68
  %7 = call i64 @Py_SIZE(ptr noundef %6)
  %8 = load ptr, ptr %4, align 8, !tbaa !3
  %9 = call ptr @ins(ptr noundef %5, i64 noundef %7, ptr noundef %8)
  ret ptr %9
}