; Function Attrs: nounwind uwtable
define internal noundef ptr @array_array_append(ptr noundef %0, ptr noundef %1) #0 {
  %3 = getelementptr i8, ptr %0, i64 16
  %.val = load i64, ptr %3, align 8, !tbaa !40
  %4 = icmp eq ptr %1, null
  br i1 %4, label %5, label %6

5:                                                ; preds = %2
  tail call void @_PyErr_BadInternalCall(ptr noundef nonnull @.str.55, i32 noundef 688) #11
  br label %ins.exit

6:                                                ; preds = %2
  %7 = getelementptr inbounds nuw i8, ptr %0, i64 40
  %8 = load ptr, ptr %7, align 8, !tbaa !76
  %9 = getelementptr inbounds nuw i8, ptr %8, i64 16
  %10 = load ptr, ptr %9, align 8, !tbaa !77
  %11 = tail call i32 %10(ptr noundef nonnull %0, i64 noundef -1, ptr noundef nonnull %1) #11
  %12 = icmp slt i32 %11, 0
  br i1 %12, label %ins.exit, label %13

13:                                               ; preds = %6
  %14 = add i64 %.val, 1
  %15 = tail call fastcc i32 @array_resize(ptr noundef nonnull %0, i64 noundef %14)
  %16 = icmp eq i32 %15, -1
  br i1 %16, label %ins.exit, label %ins1.exit.i

ins1.exit.i:                                      ; preds = %13
  %17 = icmp slt i64 %.val, 0
  %18 = shl i64 %.val, 1
  %spec.store.select.i.i = tail call i64 @llvm.smax.i64(i64 %18, i64 0)
  %19 = tail call i64 @llvm.smin.i64(i64 %spec.store.select.i.i, i64 %.val)
  %.1.i.i = select i1 %17, i64 %19, i64 %.val
  %20 = load ptr, ptr %7, align 8, !tbaa !76
  %21 = getelementptr inbounds nuw i8, ptr %20, i64 16
  %22 = load ptr, ptr %21, align 8, !tbaa !77
  %23 = tail call i32 %22(ptr noundef nonnull %0, i64 noundef %.1.i.i, ptr noundef nonnull %1) #11
  %.fr.i = freeze i32 %23
  %.not.i = icmp eq i32 %.fr.i, 0
  %spec.select.i = select i1 %.not.i, ptr @_Py_NoneStruct, ptr null
  br label %ins.exit

ins.exit:                                         ; preds = %5, %6, %13, %ins1.exit.i
  %24 = phi ptr [ null, %5 ], [ null, %6 ], [ null, %13 ], [ %spec.select.i, %ins1.exit.i ]
  ret ptr %24
}